; Function Attrs: mustprogress uwtable
define void @_ZN32pxrInternal_v0_24__pxrReserved__20UsdUtilsStitchLayersERKNS_9TfWeakPtrINS_8SdfLayerEEES4_(ptr noundef nonnull align 8 dereferenceable(16) %0, ptr noundef nonnull align 8 dereferenceable(16) %1) local_unnamed_addr #0 personality ptr @__gxx_personality_v0 {
  %3 = alloca %"class.std::function", align 8
  call void @llvm.memset.p0.i64(ptr noundef nonnull align 8 dereferenceable(32) %3, i8 0, i64 32, i1 false)
  invoke void @_ZN32pxrInternal_v0_24__pxrReserved__20UsdUtilsStitchLayersERKNS_9TfWeakPtrINS_8SdfLayerEEES4_RKSt8functionIFNS_25UsdUtilsStitchValueStatusERKNS_7TfTokenERKNS_7SdfPathES4_bS4_bPNS_7VtValueEEE(ptr noundef nonnull align 8 dereferenceable(16) %0, ptr noundef nonnull align 8 dereferenceable(16) %1, ptr noundef nonnull align 8 dereferenceable(32) %3)
          to label %4 unwind label %12

4:                                                ; preds = %2
  %5 = getelementptr inbounds nuw i8, ptr %3, i64 16
  %6 = load ptr, ptr %5, align 8
  %.not.i.i = icmp eq ptr %6, null
  br i1 %.not.i.i, label %_ZNSt8functionIFN32pxrInternal_v0_24__pxrReserved__25UsdUtilsStitchValueStatusERKNS0_7TfTokenERKNS0_7SdfPathERKNS0_9TfWeakPtrINS0_8SdfLayerEEEbSC_bPNS0_7VtValueEEED2Ev.exit, label %7

7:                                                ; preds = %4
  %8 = invoke noundef zeroext i1 %6(ptr noundef nonnull align 8 dereferenceable(16) %3, ptr noundef nonnull align 8 dereferenceable(16) %3, i32 noundef 3)
          to label %_ZNSt8functionIFN32pxrInternal_v0_24__pxrReserved__25UsdUtilsStitchValueStatusERKNS0_7TfTokenERKNS0_7SdfPathERKNS0_9TfWeakPtrINS0_8SdfLayerEEEbSC_bPNS0_7VtValueEEED2Ev.exit unwind label %9

9:                                                ; preds = %7
  %10 = landingpad { ptr, i32 }
          catch ptr null
  %11 = extractvalue { ptr, i32 } %10, 0
  call void @__clang_call_terminate(ptr %11) #18
  unreachable

_ZNSt8functionIFN32pxrInternal_v0_24__pxrReserved__25UsdUtilsStitchValueStatusERKNS0_7TfTokenERKNS0_7SdfPathERKNS0_9TfWeakPtrINS0_8SdfLayerEEEbSC_bPNS0_7VtValueEEED2Ev.exit: ; preds = %4, %7
  ret void

12:                                               ; preds = %2
  %13 = landingpad { ptr, i32 }
          cleanup
  %14 = getelementptr inbounds nuw i8, ptr %3, i64 16
  %15 = load ptr, ptr %14, align 8
  %.not.i.i3 = icmp eq ptr %15, null
  br i1 %.not.i.i3, label %_ZNSt8functionIFN32pxrInternal_v0_24__pxrReserved__25UsdUtilsStitchValueStatusERKNS0_7TfTokenERKNS0_7SdfPathERKNS0_9TfWeakPtrINS0_8SdfLayerEEEbSC_bPNS0_7VtValueEEED2Ev.exit4, label %16

16:                                               ; preds = %12
  %17 = invoke noundef zeroext i1 %15(ptr noundef nonnull align 8 dereferenceable(16) %3, ptr noundef nonnull align 8 dereferenceable(16) %3, i32 noundef 3)
          to label %_ZNSt8functionIFN32pxrInternal_v0_24__pxrReserved__25UsdUtilsStitchValueStatusERKNS0_7TfTokenERKNS0_7SdfPathERKNS0_9TfWeakPtrINS0_8SdfLayerEEEbSC_bPNS0_7VtValueEEED2Ev.exit4 unwind label %18

18:                                               ; preds = %16
  %19 = landingpad { ptr, i32 }
          catch ptr null
  %20 = extractvalue { ptr, i32 } %19, 0
  call void @__clang_call_terminate(ptr %20) #18
  unreachable

_ZNSt8functionIFN32pxrInternal_v0_24__pxrReserved__25UsdUtilsStitchValueStatusERKNS0_7TfTokenERKNS0_7SdfPathERKNS0_9TfWeakPtrINS0_8SdfLayerEEEbSC_bPNS0_7VtValueEEED2Ev.exit4: ; preds = %12, %16
  resume { ptr, i32 } %13
}